#include <math.h>
#include <stdio.h>
#include <stdlib.h>
#include <string.h>

int main()
{
    
    int i,k,n,p,j;
	int a[1000000];
	scanf("%d",&n);
	for(i=0;i<n;i++)
		scanf("%d",&a[i]);
	scanf("%d",&k);
	for(i=0;i<n-1;i++)
	{
		if(*(a+i)==k)
		{
			for(j=i+1;j<n;j++)
			{
				if(*(a+j)!=k)
				{
					*(a+i)=*(a+j);
				    *(a+j)=k;
					break;
				}
			}
		}
	}
	for(i=n-1;i>=0;i--)
	{
		if(*(a+i)!=k)
		{
			p=i;
			break;
		}
	}
	for(i=0;i<=p;i++)
	{
		if(i<p)
		printf("%d ",*(a+i));
		if(i==p)
        printf("%d",*(a+i));
	}
	return 0;
}